; Function Attrs: nounwind uwtable
define zeroext range(i8 0, 2) i8 @l___private_Lean_Meta_Tactic_Simp_BuiltinSimprocs_Fin_0__Fin_decEqValue____x40_Lean_Meta_Tactic_Simp_BuiltinSimprocs_Fin___hyg_27_(ptr noundef readonly captures(none) %0, ptr noundef readonly captures(none) %1) local_unnamed_addr #1 {
  %3 = getelementptr inbounds nuw i8, ptr %0, i64 8
  %4 = load ptr, ptr %3, align 8, !tbaa !5
  %5 = getelementptr inbounds nuw i8, ptr %0, i64 16
  %6 = load ptr, ptr %5, align 8, !tbaa !5
  %7 = getelementptr inbounds nuw i8, ptr %1, i64 8
  %8 = load ptr, ptr %7, align 8, !tbaa !5
  %9 = getelementptr inbounds nuw i8, ptr %1, i64 16
  %10 = load ptr, ptr %9, align 8, !tbaa !5
  %11 = ptrtoint ptr %4 to i64
  %12 = and i64 %11, 1
  %13 = icmp ne i64 %12, 0
  %14 = ptrtoint ptr %8 to i64
  %15 = and i64 %14, 1
  %16 = icmp ne i64 %15, 0
  %or.cond = select i1 %13, i1 %16, i1 false
  br i1 %or.cond, label %17, label %lean_nat_eq.exit, !prof !9

17:                                               ; preds = %2
  %18 = icmp eq ptr %4, %8
  br i1 %18, label %20, label %31

lean_nat_eq.exit:                                 ; preds = %2
  %19 = tail call zeroext i1 @lean_nat_big_eq(ptr noundef %4, ptr noundef %8) #4
  br i1 %19, label %20, label %31

20:                                               ; preds = %17, %lean_nat_eq.exit
  %21 = ptrtoint ptr %6 to i64
  %22 = and i64 %21, 1
  %23 = icmp ne i64 %22, 0
  %24 = ptrtoint ptr %10 to i64
  %25 = and i64 %24, 1
  %26 = icmp ne i64 %25, 0
  %or.cond18 = select i1 %23, i1 %26, i1 false
  br i1 %or.cond18, label %27, label %.critedge.i11, !prof !9

27:                                               ; preds = %20
  %28 = icmp eq ptr %6, %10
  br label %lean_nat_eq.exit13

.critedge.i11:                                    ; preds = %20
  %29 = tail call zeroext i1 @lean_nat_big_eq(ptr noundef %6, ptr noundef %10) #4
  br label %lean_nat_eq.exit13

lean_nat_eq.exit13:                               ; preds = %27, %.critedge.i11
  %.0.i12 = phi i1 [ %28, %27 ], [ %29, %.critedge.i11 ]
  %30 = zext i1 %.0.i12 to i8
  br label %31

31:                                               ; preds = %17, %lean_nat_eq.exit, %lean_nat_eq.exit13
  %.0 = phi i8 [ %30, %lean_nat_eq.exit13 ], [ 0, %lean_nat_eq.exit ], [ 0, %17 ]
  ret i8 %.0
}